target datalayout = "e-m:e-p270:32:32-p271:32:32-p272:64:64-i64:64-i128:128-f80:128-n8:16:32:64-S128"
target triple = "x86_64-pc-linux-gnu"

%"struct.glslang::TSourceLoc" = type { ptr, i32, i32, i32 }
%"class.glslang::TPpToken" = type <{ %"struct.glslang::TSourceLoc", i8, i8, [6 x i8], %union.anon.79, [1025 x i8], [7 x i8] }>
%union.anon.79 = type { double }
%"class.glslang::TPpContext" = type <{ ptr, %"class.glslang::TMap", %"class.glslang::TStringAtomMap", ptr, i32, [4 x i8], ptr, ptr, i32, i32, i32, [4 x i8], ptr, %"class.std::vector.14", %"class.std::vector.16", i32, [65 x i8], [3 x i8], i32, [4 x i8], %"class.std::vector.21", i8, i8, [6 x i8], ptr, i8, [7 x i8], %"class.std::__cxx11::basic_string.26", %"class.std::stack", %"class.std::__cxx11::basic_string.26", %"class.std::__cxx11::basic_istringstream", i8, [7 x i8] }>
%"class.glslang::TMap" = type { %"class.std::map" }
%"class.std::map" = type { %"class.std::_Rb_tree" }
%"class.std::_Rb_tree" = type { %"struct.std::_Rb_tree<int, std::pair<const int, glslang::TPpContext::MacroSymbol>, std::_Select1st<std::pair<const int, glslang::TPpContext::MacroSymbol>>, std::less<int>, glslang::pool_allocator<std::pair<const int, glslang::TPpContext::MacroSymbol>>>::_Rb_tree_impl" }
%"struct.std::_Rb_tree<int, std::pair<const int, glslang::TPpContext::MacroSymbol>, std::_Select1st<std::pair<const int, glslang::TPpContext::MacroSymbol>>, std::less<int>, glslang::pool_allocator<std::pair<const int, glslang::TPpContext::MacroSymbol>>>::_Rb_tree_impl" = type { %"class.glslang::pool_allocator.4", %"struct.std::_Rb_tree_key_compare", %"struct.std::_Rb_tree_header" }
%"class.glslang::pool_allocator.4" = type { ptr }
%"struct.std::_Rb_tree_key_compare" = type { %"struct.std::less" }
%"struct.std::less" = type { i8 }
%"struct.std::_Rb_tree_header" = type { %"struct.std::_Rb_tree_node_base", i64 }
%"struct.std::_Rb_tree_node_base" = type { i32, ptr, ptr, ptr }
%"class.glslang::TStringAtomMap" = type { %"class.glslang::TUnorderedMap", %"class.glslang::TVector.9", i32, %"class.std::__cxx11::basic_string" }
%"class.glslang::TUnorderedMap" = type { %"class.std::unordered_map" }
%"class.std::unordered_map" = type { %"class.std::_Hashtable" }
%"class.std::_Hashtable" = type { %"struct.std::__detail::_Hashtable_alloc", ptr, i64, %"struct.std::__detail::_Hash_node_base", i64, %"struct.std::__detail::_Prime_rehash_policy", ptr }
%"struct.std::__detail::_Hashtable_alloc" = type { %"struct.std::__detail::_Hashtable_ebo_helper.7" }
%"struct.std::__detail::_Hashtable_ebo_helper.7" = type { %"class.glslang::pool_allocator.8" }
%"class.glslang::pool_allocator.8" = type { ptr }
%"struct.std::__detail::_Hash_node_base" = type { ptr }
%"struct.std::__detail::_Prime_rehash_policy" = type { float, i64 }
%"class.glslang::TVector.9" = type { %"class.std::vector.10" }
%"class.std::vector.10" = type { %"struct.std::_Vector_base.11" }
%"struct.std::_Vector_base.11" = type { %"struct.std::_Vector_base<const std::__cxx11::basic_string<char, std::char_traits<char>, glslang::pool_allocator<char>> *, glslang::pool_allocator<const std::__cxx11::basic_string<char, std::char_traits<char>, glslang::pool_allocator<char>> *>>::_Vector_impl" }
%"struct.std::_Vector_base<const std::__cxx11::basic_string<char, std::char_traits<char>, glslang::pool_allocator<char>> *, glslang::pool_allocator<const std::__cxx11::basic_string<char, std::char_traits<char>, glslang::pool_allocator<char>> *>>::_Vector_impl" = type { %"class.glslang::pool_allocator.12", %"struct.std::_Vector_base<const std::__cxx11::basic_string<char, std::char_traits<char>, glslang::pool_allocator<char>> *, glslang::pool_allocator<const std::__cxx11::basic_string<char, std::char_traits<char>, glslang::pool_allocator<char>> *>>::_Vector_impl_data" }
%"class.glslang::pool_allocator.12" = type { ptr }
%"struct.std::_Vector_base<const std::__cxx11::basic_string<char, std::char_traits<char>, glslang::pool_allocator<char>> *, glslang::pool_allocator<const std::__cxx11::basic_string<char, std::char_traits<char>, glslang::pool_allocator<char>> *>>::_Vector_impl_data" = type { ptr, ptr, ptr }
%"class.std::__cxx11::basic_string" = type { %"struct.std::__cxx11::basic_string<char, std::char_traits<char>, glslang::pool_allocator<char>>::_Alloc_hider", i64, %union.anon }
%"struct.std::__cxx11::basic_string<char, std::char_traits<char>, glslang::pool_allocator<char>>::_Alloc_hider" = type { %"class.glslang::pool_allocator.13", ptr }
%"class.glslang::pool_allocator.13" = type { ptr }
%union.anon = type { i64, [8 x i8] }
%"class.std::vector.14" = type { %"struct.std::_Vector_base.15" }
%"struct.std::_Vector_base.15" = type { %"struct.std::_Vector_base<int, std::allocator<int>>::_Vector_impl" }
%"struct.std::_Vector_base<int, std::allocator<int>>::_Vector_impl" = type { %"struct.std::_Vector_base<int, std::allocator<int>>::_Vector_impl_data" }
%"struct.std::_Vector_base<int, std::allocator<int>>::_Vector_impl_data" = type { ptr, ptr, ptr }
%"class.std::vector.16" = type { %"struct.std::_Vector_base.17" }
%"struct.std::_Vector_base.17" = type { %"struct.std::_Vector_base<glslang::TSourceLoc, std::allocator<glslang::TSourceLoc>>::_Vector_impl" }
%"struct.std::_Vector_base<glslang::TSourceLoc, std::allocator<glslang::TSourceLoc>>::_Vector_impl" = type { %"struct.std::_Vector_base<glslang::TSourceLoc, std::allocator<glslang::TSourceLoc>>::_Vector_impl_data" }
%"struct.std::_Vector_base<glslang::TSourceLoc, std::allocator<glslang::TSourceLoc>>::_Vector_impl_data" = type { ptr, ptr, ptr }
%"class.std::vector.21" = type { %"struct.std::_Vector_base.22" }
%"struct.std::_Vector_base.22" = type { %"struct.std::_Vector_base<glslang::TPpContext::tInput *, std::allocator<glslang::TPpContext::tInput *>>::_Vector_impl" }
%"struct.std::_Vector_base<glslang::TPpContext::tInput *, std::allocator<glslang::TPpContext::tInput *>>::_Vector_impl" = type { %"struct.std::_Vector_base<glslang::TPpContext::tInput *, std::allocator<glslang::TPpContext::tInput *>>::_Vector_impl_data" }
%"struct.std::_Vector_base<glslang::TPpContext::tInput *, std::allocator<glslang::TPpContext::tInput *>>::_Vector_impl_data" = type { ptr, ptr, ptr }
%"class.std::stack" = type { %"class.std::deque" }
%"class.std::deque" = type { %"class.std::_Deque_base" }
%"class.std::_Deque_base" = type { %"struct.std::_Deque_base<glslang::TShader::Includer::IncludeResult *, std::allocator<glslang::TShader::Includer::IncludeResult *>>::_Deque_impl" }
%"struct.std::_Deque_base<glslang::TShader::Includer::IncludeResult *, std::allocator<glslang::TShader::Includer::IncludeResult *>>::_Deque_impl" = type { %"struct.std::_Deque_base<glslang::TShader::Includer::IncludeResult *, std::allocator<glslang::TShader::Includer::IncludeResult *>>::_Deque_impl_data" }
%"struct.std::_Deque_base<glslang::TShader::Includer::IncludeResult *, std::allocator<glslang::TShader::Includer::IncludeResult *>>::_Deque_impl_data" = type { ptr, i64, %"struct.std::_Deque_iterator", %"struct.std::_Deque_iterator" }
%"struct.std::_Deque_iterator" = type { ptr, ptr, ptr, ptr }
%"class.std::__cxx11::basic_string.26" = type { %"struct.std::__cxx11::basic_string<char>::_Alloc_hider", i64, %union.anon.30 }
%"struct.std::__cxx11::basic_string<char>::_Alloc_hider" = type { ptr }
%union.anon.30 = type { i64, [8 x i8] }
%"class.std::__cxx11::basic_istringstream" = type { %"class.std::basic_istream.base", %"class.std::__cxx11::basic_stringbuf", %"class.std::basic_ios" }
%"class.std::basic_istream.base" = type { ptr, i64 }
%"class.std::__cxx11::basic_stringbuf" = type { %"class.std::basic_streambuf", i32, %"class.std::__cxx11::basic_string.26" }
%"class.std::basic_streambuf" = type { ptr, ptr, ptr, ptr, ptr, ptr, ptr, %"class.std::locale" }
%"class.std::locale" = type { ptr }
%"class.std::basic_ios" = type { %"class.std::ios_base", ptr, i8, i8, ptr, ptr, ptr, ptr }
%"class.std::ios_base" = type { ptr, i64, i64, i32, i32, i32, ptr, %"struct.std::ios_base::_Words", [8 x %"struct.std::ios_base::_Words"], i32, ptr, %"class.std::locale" }
%"struct.std::ios_base::_Words" = type { ptr, i64 }
%"class.glslang::TParseVersions" = type { ptr, i8, i32, ptr, i32, i32, %"struct.glslang::SpvVersion", ptr, %"class.glslang::TMap.34", %"class.glslang::TMap.40", %"class.glslang::TVector.44", i32, i32, ptr }
%"struct.glslang::SpvVersion" = type <{ i32, i32, i32, i32, i8, [3 x i8] }>
%"class.glslang::TMap.34" = type { %"class.std::map.35" }
%"class.std::map.35" = type { %"class.std::_Rb_tree.36" }
%"class.std::_Rb_tree.36" = type { %"struct.std::_Rb_tree<std::__cxx11::basic_string<char, std::char_traits<char>, glslang::pool_allocator<char>>, std::pair<const std::__cxx11::basic_string<char, std::char_traits<char>, glslang::pool_allocator<char>>, glslang::TExtensionBehavior>, std::_Select1st<std::pair<const std::__cxx11::basic_string<char, std::char_traits<char>, glslang::pool_allocator<char>>, glslang::TExtensionBehavior>>, std::less<std::__cxx11::basic_string<char, std::char_traits<char>, glslang::pool_allocator<char>>>, glslang::pool_allocator<std::pair<const std::__cxx11::basic_string<char, std::char_traits<char>, glslang::pool_allocator<char>>, glslang::TExtensionBehavior>>>::_Rb_tree_impl" }
%"struct.std::_Rb_tree<std::__cxx11::basic_string<char, std::char_traits<char>, glslang::pool_allocator<char>>, std::pair<const std::__cxx11::basic_string<char, std::char_traits<char>, glslang::pool_allocator<char>>, glslang::TExtensionBehavior>, std::_Select1st<std::pair<const std::__cxx11::basic_string<char, std::char_traits<char>, glslang::pool_allocator<char>>, glslang::TExtensionBehavior>>, std::less<std::__cxx11::basic_string<char, std::char_traits<char>, glslang::pool_allocator<char>>>, glslang::pool_allocator<std::pair<const std::__cxx11::basic_string<char, std::char_traits<char>, glslang::pool_allocator<char>>, glslang::TExtensionBehavior>>>::_Rb_tree_impl" = type { %"class.glslang::pool_allocator.37", %"struct.std::_Rb_tree_key_compare.38", %"struct.std::_Rb_tree_header" }
%"class.glslang::pool_allocator.37" = type { ptr }
%"struct.std::_Rb_tree_key_compare.38" = type { %"struct.std::less.39" }
%"struct.std::less.39" = type { i8 }
%"class.glslang::TMap.40" = type { %"class.std::map.41" }
%"class.std::map.41" = type { %"class.std::_Rb_tree.42" }
%"class.std::_Rb_tree.42" = type { %"struct.std::_Rb_tree<std::__cxx11::basic_string<char, std::char_traits<char>, glslang::pool_allocator<char>>, std::pair<const std::__cxx11::basic_string<char, std::char_traits<char>, glslang::pool_allocator<char>>, unsigned int>, std::_Select1st<std::pair<const std::__cxx11::basic_string<char, std::char_traits<char>, glslang::pool_allocator<char>>, unsigned int>>, std::less<std::__cxx11::basic_string<char, std::char_traits<char>, glslang::pool_allocator<char>>>, glslang::pool_allocator<std::pair<const std::__cxx11::basic_string<char, std::char_traits<char>, glslang::pool_allocator<char>>, unsigned int>>>::_Rb_tree_impl" }
%"struct.std::_Rb_tree<std::__cxx11::basic_string<char, std::char_traits<char>, glslang::pool_allocator<char>>, std::pair<const std::__cxx11::basic_string<char, std::char_traits<char>, glslang::pool_allocator<char>>, unsigned int>, std::_Select1st<std::pair<const std::__cxx11::basic_string<char, std::char_traits<char>, glslang::pool_allocator<char>>, unsigned int>>, std::less<std::__cxx11::basic_string<char, std::char_traits<char>, glslang::pool_allocator<char>>>, glslang::pool_allocator<std::pair<const std::__cxx11::basic_string<char, std::char_traits<char>, glslang::pool_allocator<char>>, unsigned int>>>::_Rb_tree_impl" = type { %"class.glslang::pool_allocator.43", %"struct.std::_Rb_tree_key_compare.38", %"struct.std::_Rb_tree_header" }
%"class.glslang::pool_allocator.43" = type { ptr }
%"class.glslang::TVector.44" = type { %"class.std::vector.45" }
%"class.std::vector.45" = type { %"struct.std::_Vector_base.46" }
%"struct.std::_Vector_base.46" = type { %"struct.std::_Vector_base<std::__cxx11::basic_string<char, std::char_traits<char>, glslang::pool_allocator<char>>, glslang::pool_allocator<std::__cxx11::basic_string<char, std::char_traits<char>, glslang::pool_allocator<char>>>>::_Vector_impl" }
%"struct.std::_Vector_base<std::__cxx11::basic_string<char, std::char_traits<char>, glslang::pool_allocator<char>>, glslang::pool_allocator<std::__cxx11::basic_string<char, std::char_traits<char>, glslang::pool_allocator<char>>>>::_Vector_impl" = type { %"class.glslang::pool_allocator.47", %"struct.std::_Vector_base<std::__cxx11::basic_string<char, std::char_traits<char>, glslang::pool_allocator<char>>, glslang::pool_allocator<std::__cxx11::basic_string<char, std::char_traits<char>, glslang::pool_allocator<char>>>>::_Vector_impl_data" }
%"class.glslang::pool_allocator.47" = type { ptr }
%"struct.std::_Vector_base<std::__cxx11::basic_string<char, std::char_traits<char>, glslang::pool_allocator<char>>, glslang::pool_allocator<std::__cxx11::basic_string<char, std::char_traits<char>, glslang::pool_allocator<char>>>>::_Vector_impl_data" = type { ptr, ptr, ptr }

@.str.2 = private unnamed_addr constant [1 x i8] zeroinitializer, align 1
@.str.23 = private unnamed_addr constant [8 x i8] c"defined\00", align 1
@.str.27 = private unnamed_addr constant [24 x i8] c"preprocessor evaluation\00", align 1
@.str.31 = private unnamed_addr constant [26 x i8] c"can't evaluate expression\00", align 1
@.str.32 = private unnamed_addr constant [56 x i8] c"undefined macro in expression not allowed in es profile\00", align 1

; Function Attrs: mustprogress nounwind uwtable
define linkonce_odr noundef zeroext i1 @_ZNK7glslang14TParseVersions13relaxedErrorsEv(ptr noundef nonnull align 8 dereferenceable(224) %0) #0 comdat align 2 {
  %2 = alloca ptr, align 8
  store ptr %0, ptr %2, align 8
  %3 = load ptr, ptr %2, align 8
  %4 = getelementptr inbounds %"class.glslang::TParseVersions", ptr %3, i32 0, i32 11
  %5 = load i32, ptr %4, align 8
  %6 = and i32 %5, 1
  %7 = icmp ne i32 %6, 0
  ret i1 %7
}

; Function Attrs: mustprogress nounwind uwtable
define linkonce_odr noundef zeroext i1 @_ZNK7glslang14TParseVersions11isEsProfileEv(ptr noundef nonnull align 8 dereferenceable(224) %0) #0 comdat align 2 {
  %2 = alloca ptr, align 8
  store ptr %0, ptr %2, align 8
  %3 = load ptr, ptr %2, align 8
  %4 = getelementptr inbounds %"class.glslang::TParseVersions", ptr %3, i32 0, i32 2
  %5 = load i32, ptr %4, align 4
  %6 = icmp eq i32 %5, 8
  ret i1 %6
}

; Function Attrs: mustprogress nounwind uwtable
define noundef i32 @_ZN7glslang10TPpContext11evalToTokenEibRiRbPNS_8TPpTokenE(ptr noundef nonnull align 8 dereferenceable(969) %0, i32 noundef %1, i1 noundef zeroext %2, ptr noundef nonnull align 4 dereferenceable(4) %3, ptr noundef nonnull align 1 dereferenceable(1) %4, ptr noundef %5) #0 align 2 {
  %7 = alloca ptr, align 8
  %8 = alloca i32, align 4
  %9 = alloca i8, align 1
  %10 = alloca ptr, align 8
  %11 = alloca ptr, align 8
  %12 = alloca ptr, align 8
  %13 = alloca ptr, align 8
  store ptr %0, ptr %7, align 8
  store i32 %1, ptr %8, align 4
  %14 = zext i1 %2 to i8
  store i8 %14, ptr %9, align 1
  store ptr %3, ptr %10, align 8
  store ptr %4, ptr %11, align 8
  store ptr %5, ptr %12, align 8
  %15 = load ptr, ptr %7, align 8
  br label %16

16:                                               ; preds = %85, %6
  %17 = load i32, ptr %8, align 4
  %18 = icmp eq i32 %17, 162
  br i1 %18, label %19, label %25

19:                                               ; preds = %16
  %20 = load ptr, ptr %12, align 8
  %21 = getelementptr inbounds %"class.glslang::TPpToken", ptr %20, i32 0, i32 5
  %22 = getelementptr inbounds [1025 x i8], ptr %21, i64 0, i64 0
  %23 = call i32 @strcmp(ptr noundef @.str.23, ptr noundef %22) #13
  %24 = icmp ne i32 %23, 0
  br label %25

25:                                               ; preds = %19, %16
  %26 = phi i1 [ false, %16 ], [ %24, %19 ]
  br i1 %26, label %27, label %86

27:                                               ; preds = %25
  %28 = load ptr, ptr %12, align 8
  %29 = call noundef i32 @_ZN7glslang10TPpContext11MacroExpandEPNS_8TPpTokenEbb(ptr noundef nonnull align 8 dereferenceable(969) %15, ptr noundef %28, i1 noundef zeroext true, i1 noundef zeroext false)
  switch i32 %29, label %78 [
    i32 0, label %30
    i32 1, label %30
    i32 2, label %40
    i32 3, label %41
  ]

30:                                               ; preds = %27, %27
  %31 = getelementptr inbounds %"class.glslang::TPpContext", ptr %15, i32 0, i32 12
  %32 = load ptr, ptr %31, align 8
  %33 = load ptr, ptr %12, align 8
  %34 = getelementptr inbounds %"class.glslang::TPpToken", ptr %33, i32 0, i32 0
  %35 = load ptr, ptr %32, align 8
  %36 = getelementptr inbounds ptr, ptr %35, i64 45
  %37 = load ptr, ptr %36, align 8
  call void (ptr, ptr, ptr, ptr, ptr, ...) %37(ptr noundef nonnull align 8 dereferenceable(1280) %32, ptr noundef nonnull align 8 dereferenceable(24) %34, ptr noundef @.str.31, ptr noundef @.str.27, ptr noundef @.str.2)
  %38 = load ptr, ptr %11, align 8
  store i8 1, ptr %38, align 1
  %39 = load ptr, ptr %10, align 8
  store i32 0, ptr %39, align 4
  br label %78

40:                                               ; preds = %27
  br label %78

41:                                               ; preds = %27
  %42 = load i8, ptr %9, align 1
  %43 = trunc i8 %42 to i1
  br i1 %43, label %77, label %44

44:                                               ; preds = %41
  %45 = getelementptr inbounds %"class.glslang::TPpContext", ptr %15, i32 0, i32 12
  %46 = load ptr, ptr %45, align 8
  %47 = call noundef zeroext i1 @_ZNK7glslang14TParseVersions11isEsProfileEv(ptr noundef nonnull align 8 dereferenceable(224) %46)
  br i1 %47, label %48, label %77

48:                                               ; preds = %44
  store ptr @.str.32, ptr %13, align 8
  %49 = getelementptr inbounds %"class.glslang::TPpContext", ptr %15, i32 0, i32 12
  %50 = load ptr, ptr %49, align 8
  %51 = call noundef zeroext i1 @_ZNK7glslang14TParseVersions13relaxedErrorsEv(ptr noundef nonnull align 8 dereferenceable(224) %50)
  br i1 %51, label %52, label %64

52:                                               ; preds = %48
  %53 = getelementptr inbounds %"class.glslang::TPpContext", ptr %15, i32 0, i32 12
  %54 = load ptr, ptr %53, align 8
  %55 = load ptr, ptr %12, align 8
  %56 = getelementptr inbounds %"class.glslang::TPpToken", ptr %55, i32 0, i32 0
  %57 = load ptr, ptr %13, align 8
  %58 = load ptr, ptr %12, align 8
  %59 = getelementptr inbounds %"class.glslang::TPpToken", ptr %58, i32 0, i32 5
  %60 = getelementptr inbounds [1025 x i8], ptr %59, i64 0, i64 0
  %61 = load ptr, ptr %54, align 8
  %62 = getelementptr inbounds ptr, ptr %61, i64 46
  %63 = load ptr, ptr %62, align 8
  call void (ptr, ptr, ptr, ptr, ptr, ...) %63(ptr noundef nonnull align 8 dereferenceable(1280) %54, ptr noundef nonnull align 8 dereferenceable(24) %56, ptr noundef %57, ptr noundef @.str.27, ptr noundef %60)
  br label %76

64:                                               ; preds = %48
  %65 = getelementptr inbounds %"class.glslang::TPpContext", ptr %15, i32 0, i32 12
  %66 = load ptr, ptr %65, align 8
  %67 = load ptr, ptr %12, align 8
  %68 = getelementptr inbounds %"class.glslang::TPpToken", ptr %67, i32 0, i32 0
  %69 = load ptr, ptr %13, align 8
  %70 = load ptr, ptr %12, align 8
  %71 = getelementptr inbounds %"class.glslang::TPpToken", ptr %70, i32 0, i32 5
  %72 = getelementptr inbounds [1025 x i8], ptr %71, i64 0, i64 0
  %73 = load ptr, ptr %66, align 8
  %74 = getelementptr inbounds ptr, ptr %73, i64 45
  %75 = load ptr, ptr %74, align 8
  call void (ptr, ptr, ptr, ptr, ptr, ...) %75(ptr noundef nonnull align 8 dereferenceable(1280) %66, ptr noundef nonnull align 8 dereferenceable(24) %68, ptr noundef %69, ptr noundef @.str.27, ptr noundef %72)
  br label %76

76:                                               ; preds = %64, %52
  br label %77

77:                                               ; preds = %76, %44, %41
  br label %78

78:                                               ; preds = %77, %40, %30, %27
  %79 = load ptr, ptr %12, align 8
  %80 = call noundef i32 @_ZN7glslang10TPpContext9scanTokenEPNS_8TPpTokenE(ptr noundef nonnull align 8 dereferenceable(969) %15, ptr noundef %79)
  store i32 %80, ptr %8, align 4
  %81 = load ptr, ptr %11, align 8
  %82 = load i8, ptr %81, align 1
  %83 = trunc i8 %82 to i1
  br i1 %83, label %84, label %85

84:                                               ; preds = %78
  br label %86

85:                                               ; preds = %78
  br label %16, !llvm.loop !17

86:                                               ; preds = %84, %25
  %87 = load i32, ptr %8, align 4
  ret i32 %87
}