; Function Attrs: mustprogress nounwind uwtable
define noundef i32 @_ZN7glslang10TPpContext11evalToTokenEibRiRbPNS_8TPpTokenE(ptr noundef nonnull align 8 dereferenceable(969) %0, i32 noundef %1, i1 noundef zeroext %2, ptr nocapture noundef nonnull writeonly align 4 dereferenceable(4) %3, ptr nocapture noundef nonnull align 1 dereferenceable(1) %4, ptr noundef %5) local_unnamed_addr #0 align 2 {
  %.old1 = icmp eq i32 %1, 162
  br i1 %.old1, label %.preheader, label %.critedge

.preheader:                                       ; preds = %6
  %7 = getelementptr inbounds i8, ptr %5, i64 40
  %8 = getelementptr inbounds i8, ptr %0, i64 256
  br i1 %2, label %.preheader.split.us, label %.preheader.split

.preheader.split.us:                              ; preds = %.preheader, %17
  %9 = tail call i32 @strcmp(ptr noundef nonnull dereferenceable(8) @.str.23, ptr noundef nonnull dereferenceable(1) %7) #19
  %.not21.us = icmp eq i32 %9, 0
  br i1 %.not21.us, label %.critedge, label %10

10:                                               ; preds = %.preheader.split.us
  %11 = tail call noundef i32 @_ZN7glslang10TPpContext11MacroExpandEPNS_8TPpTokenEbb(ptr noundef nonnull align 8 dereferenceable(969) %0, ptr noundef %5, i1 noundef zeroext true, i1 noundef zeroext false)
  %switch = icmp ult i32 %11, 2
  br i1 %switch, label %12, label %17

12:                                               ; preds = %10
  %13 = load ptr, ptr %8, align 8
  %14 = load ptr, ptr %13, align 8
  %15 = getelementptr inbounds i8, ptr %14, i64 360
  %16 = load ptr, ptr %15, align 8
  tail call void (ptr, ptr, ptr, ptr, ptr, ...) %16(ptr noundef nonnull align 8 dereferenceable(1280) %13, ptr noundef nonnull align 8 dereferenceable(24) %5, ptr noundef nonnull @.str.31, ptr noundef nonnull @.str.27, ptr noundef nonnull @.str.2) #17
  store i8 1, ptr %4, align 1
  store i32 0, ptr %3, align 4
  br label %17

17:                                               ; preds = %10, %12
  %18 = tail call noundef i32 @_ZN7glslang10TPpContext9scanTokenEPNS_8TPpTokenE(ptr noundef nonnull align 8 dereferenceable(969) %0, ptr noundef %5)
  %19 = load i8, ptr %4, align 1
  %20 = trunc i8 %19 to i1
  %21 = icmp ne i32 %18, 162
  %or.cond.not.us = or i1 %21, %20
  br i1 %or.cond.not.us, label %.critedge, label %.preheader.split.us, !llvm.loop !20

.preheader.split:                                 ; preds = %.preheader, %46
  %22 = tail call i32 @strcmp(ptr noundef nonnull dereferenceable(8) @.str.23, ptr noundef nonnull dereferenceable(1) %7) #19
  %.not21 = icmp eq i32 %22, 0
  br i1 %.not21, label %.critedge, label %23

23:                                               ; preds = %.preheader.split
  %24 = tail call noundef i32 @_ZN7glslang10TPpContext11MacroExpandEPNS_8TPpTokenEbb(ptr noundef nonnull align 8 dereferenceable(969) %0, ptr noundef %5, i1 noundef zeroext true, i1 noundef zeroext false)
  switch i32 %24, label %46 [
    i32 0, label %25
    i32 1, label %25
    i32 3, label %30
  ]

25:                                               ; preds = %23, %23
  %26 = load ptr, ptr %8, align 8
  %27 = load ptr, ptr %26, align 8
  %28 = getelementptr inbounds i8, ptr %27, i64 360
  %29 = load ptr, ptr %28, align 8
  tail call void (ptr, ptr, ptr, ptr, ptr, ...) %29(ptr noundef nonnull align 8 dereferenceable(1280) %26, ptr noundef nonnull align 8 dereferenceable(24) %5, ptr noundef nonnull @.str.31, ptr noundef nonnull @.str.27, ptr noundef nonnull @.str.2) #17
  store i8 1, ptr %4, align 1
  store i32 0, ptr %3, align 4
  br label %46

30:                                               ; preds = %23
  %31 = load ptr, ptr %8, align 8
  %32 = getelementptr inbounds i8, ptr %31, i64 12
  %33 = load i32, ptr %32, align 4
  %34 = icmp eq i32 %33, 8
  br i1 %34, label %35, label %46

35:                                               ; preds = %30
  %36 = getelementptr inbounds i8, ptr %31, i64 208
  %37 = load i32, ptr %36, align 8
  %38 = and i32 %37, 1
  %.not = icmp eq i32 %38, 0
  %39 = load ptr, ptr %31, align 8
  br i1 %.not, label %43, label %40

40:                                               ; preds = %35
  %41 = getelementptr inbounds i8, ptr %39, i64 368
  %42 = load ptr, ptr %41, align 8
  tail call void (ptr, ptr, ptr, ptr, ptr, ...) %42(ptr noundef nonnull align 8 dereferenceable(1280) %31, ptr noundef nonnull align 8 dereferenceable(24) %5, ptr noundef nonnull @.str.32, ptr noundef nonnull @.str.27, ptr noundef nonnull %7) #17
  br label %46

43:                                               ; preds = %35
  %44 = getelementptr inbounds i8, ptr %39, i64 360
  %45 = load ptr, ptr %44, align 8
  tail call void (ptr, ptr, ptr, ptr, ptr, ...) %45(ptr noundef nonnull align 8 dereferenceable(1280) %31, ptr noundef nonnull align 8 dereferenceable(24) %5, ptr noundef nonnull @.str.32, ptr noundef nonnull @.str.27, ptr noundef nonnull %7) #17
  br label %46

46:                                               ; preds = %30, %43, %40, %25, %23
  %47 = tail call noundef i32 @_ZN7glslang10TPpContext9scanTokenEPNS_8TPpTokenE(ptr noundef nonnull align 8 dereferenceable(969) %0, ptr noundef %5)
  %48 = load i8, ptr %4, align 1
  %49 = trunc i8 %48 to i1
  %50 = icmp ne i32 %47, 162
  %or.cond.not = or i1 %50, %49
  br i1 %or.cond.not, label %.critedge, label %.preheader.split, !llvm.loop !20

.critedge:                                        ; preds = %.preheader.split, %46, %17, %.preheader.split.us, %6
  %.1 = phi i32 [ %1, %6 ], [ 162, %.preheader.split.us ], [ %18, %17 ], [ 162, %.preheader.split ], [ %47, %46 ]
  ret i32 %.1
}